target datalayout = "e-m:e-p270:32:32-p271:32:32-p272:64:64-i64:64-i128:128-f80:128-n8:16:32:64-S128"
target triple = "x86_64-pc-linux-gnu"

%struct.AVProbeData = type { ptr, ptr, i32, ptr }

@.str.2 = private unnamed_addr constant [5 x i8] c"xobX\00", align 1

; Function Attrs: nounwind uwtable
define internal i32 @xmv_probe(ptr noundef %0) #0 {
  %2 = alloca i32, align 4
  %3 = alloca ptr, align 8
  %4 = alloca i32, align 4
  %5 = alloca i32, align 4
  store ptr %0, ptr %3, align 8, !tbaa !4
  call void @llvm.lifetime.start.p0(i64 4, ptr %4) #8
  %6 = load ptr, ptr %3, align 8, !tbaa !4
  %7 = getelementptr inbounds nuw %struct.AVProbeData, ptr %6, i32 0, i32 2
  %8 = load i32, ptr %7, align 8, !tbaa !9
  %9 = icmp slt i32 %8, 36
  br i1 %9, label %10, label %11

10:                                               ; preds = %1
  store i32 0, ptr %2, align 4
  store i32 1, ptr %5, align 4
  br label %32

11:                                               ; preds = %1
  %12 = load ptr, ptr %3, align 8, !tbaa !4
  %13 = getelementptr inbounds nuw %struct.AVProbeData, ptr %12, i32 0, i32 1
  %14 = load ptr, ptr %13, align 8, !tbaa !13
  %15 = getelementptr inbounds i8, ptr %14, i64 16
  %16 = load i32, ptr %15, align 1, !tbaa !14
  store i32 %16, ptr %4, align 4, !tbaa !15
  %17 = load i32, ptr %4, align 4, !tbaa !15
  %18 = icmp eq i32 %17, 0
  br i1 %18, label %22, label %19

19:                                               ; preds = %11
  %20 = load i32, ptr %4, align 4, !tbaa !15
  %21 = icmp ugt i32 %20, 4
  br i1 %21, label %22, label %23

22:                                               ; preds = %19, %11
  store i32 0, ptr %2, align 4
  store i32 1, ptr %5, align 4
  br label %32

23:                                               ; preds = %19
  %24 = load ptr, ptr %3, align 8, !tbaa !4
  %25 = getelementptr inbounds nuw %struct.AVProbeData, ptr %24, i32 0, i32 1
  %26 = load ptr, ptr %25, align 8, !tbaa !13
  %27 = getelementptr inbounds i8, ptr %26, i64 12
  %28 = call i32 @memcmp(ptr noundef %27, ptr noundef @.str.2, i64 noundef 4) #9
  %29 = icmp ne i32 %28, 0
  br i1 %29, label %31, label %30

30:                                               ; preds = %23
  store i32 100, ptr %2, align 4
  store i32 1, ptr %5, align 4
  br label %32

31:                                               ; preds = %23
  store i32 0, ptr %2, align 4
  store i32 1, ptr %5, align 4
  br label %32

32:                                               ; preds = %31, %30, %22, %10
  call void @llvm.lifetime.end.p0(i64 4, ptr %4) #8
  %33 = load i32, ptr %2, align 4
  ret i32 %33
}