; Function Attrs: mustprogress nofree norecurse nounwind willreturn memory(read, inaccessiblemem: none) uwtable
define internal range(i32 0, 101) i32 @xmv_probe(ptr noundef readonly captures(none) %0) #0 {
  %2 = getelementptr inbounds nuw i8, ptr %0, i64 16
  %3 = load i32, ptr %2, align 8, !tbaa !4
  %4 = icmp slt i32 %3, 36
  br i1 %4, label %13, label %5

5:                                                ; preds = %1
  %6 = getelementptr inbounds nuw i8, ptr %0, i64 8
  %7 = load ptr, ptr %6, align 8, !tbaa !11
  %8 = getelementptr inbounds nuw i8, ptr %7, i64 16
  %9 = load i32, ptr %8, align 1, !tbaa !12
  %10 = add i32 %9, -5
  %or.cond = icmp ult i32 %10, -4
  br i1 %or.cond, label %13, label %11

11:                                               ; preds = %5
  %12 = getelementptr inbounds nuw i8, ptr %7, i64 12
  %bcmp = tail call i32 @bcmp(ptr noundef nonnull dereferenceable(4) %12, ptr noundef nonnull dereferenceable(4) @.str.2, i64 4)
  %.not = icmp eq i32 %bcmp, 0
  %. = select i1 %.not, i32 100, i32 0
  br label %13

13:                                               ; preds = %11, %5, %1
  %.0 = phi i32 [ 0, %1 ], [ 0, %5 ], [ %., %11 ]
  ret i32 %.0
}